; Function Attrs: nounwind uwtable
define ptr @l_Lean_IR_EmitC_toHexDigit___boxed(ptr noundef %0) local_unnamed_addr #0 {
  %2 = tail call i32 @l_Nat_digitChar(ptr noundef %0) #5
  %3 = load ptr, ptr @l_Lean_IR_EmitC_emitFileHeader___closed__1, align 8, !tbaa !4
  %4 = tail call ptr @lean_string_push(ptr noundef %3, i32 noundef %2) #5
  %5 = ptrtoint ptr %0 to i64
  %6 = and i64 %5, 1
  %.not = icmp eq i64 %6, 0
  br i1 %.not, label %7, label %lean_dec.exit

7:                                                ; preds = %1
  %8 = load i32, ptr %0, align 4, !tbaa !8
  %9 = icmp sgt i32 %8, 1
  br i1 %9, label %10, label %12, !prof !11

10:                                               ; preds = %7
  %11 = add nsw i32 %8, -1
  store i32 %11, ptr %0, align 4, !tbaa !8
  br label %lean_dec.exit

12:                                               ; preds = %7
  %.not.i = icmp eq i32 %8, 0
  br i1 %.not.i, label %lean_dec.exit, label %13

13:                                               ; preds = %12
  tail call void @lean_dec_ref_cold(ptr noundef nonnull %0) #5
  br label %lean_dec.exit

lean_dec.exit:                                    ; preds = %13, %12, %10, %1
  ret ptr %4
}